target datalayout = "e-m:e-p270:32:32-p271:32:32-p272:64:64-i64:64-i128:128-f80:128-n8:16:32:64-S128"
target triple = "x86_64-pc-linux-gnu"

%struct.mz_zip_archive = type { i64, i64, i32, i32, i32, i32, i64, ptr, ptr, ptr, ptr, ptr, ptr, ptr, ptr, ptr }
%struct.mz_zip_internal_state_tag = type { %struct.mz_zip_array, %struct.mz_zip_array, %struct.mz_zip_array, i32, i32, i32, ptr, i64, ptr, i64, i64 }
%struct.mz_zip_array = type { ptr, i64, i64, i32 }

; Function Attrs: alwaysinline nounwind uwtable
define internal i32 @mz_zip_set_error(ptr noundef %0, i32 noundef %1) #7 {
  %3 = alloca ptr, align 8
  %4 = alloca i32, align 4
  store ptr %0, ptr %3, align 8
  store i32 %1, ptr %4, align 4
  %5 = load ptr, ptr %3, align 8
  %6 = icmp ne ptr %5, null
  br i1 %6, label %7, label %11

7:                                                ; preds = %2
  %8 = load i32, ptr %4, align 4
  %9 = load ptr, ptr %3, align 8
  %10 = getelementptr inbounds nuw %struct.mz_zip_archive, ptr %9, i32 0, i32 5
  store i32 %8, ptr %10, align 4
  br label %11

11:                                               ; preds = %7, %2
  ret i32 0
}

; Function Attrs: nounwind uwtable
define i32 @mz_zip_writer_init_v2(ptr noundef %0, i64 noundef %1, i32 noundef %2) #0 {
  %4 = alloca i32, align 4
  %5 = alloca ptr, align 8
  %6 = alloca i64, align 8
  %7 = alloca i32, align 4
  %8 = alloca i32, align 4
  %9 = alloca i32, align 4
  store ptr %0, ptr %5, align 8
  store i64 %1, ptr %6, align 8
  store i32 %2, ptr %7, align 4
  call void @llvm.lifetime.start.p0(i64 4, ptr %8) #13
  %10 = load i32, ptr %7, align 4
  %11 = and i32 %10, 16384
  %12 = icmp ne i32 %11, 0
  %13 = zext i1 %12 to i32
  store i32 %13, ptr %8, align 4
  %14 = load ptr, ptr %5, align 8
  %15 = icmp ne ptr %14, null
  br i1 %15, label %16, label %31

16:                                               ; preds = %3
  %17 = load ptr, ptr %5, align 8
  %18 = getelementptr inbounds nuw %struct.mz_zip_archive, ptr %17, i32 0, i32 15
  %19 = load ptr, ptr %18, align 8
  %20 = icmp ne ptr %19, null
  br i1 %20, label %31, label %21

21:                                               ; preds = %16
  %22 = load ptr, ptr %5, align 8
  %23 = getelementptr inbounds nuw %struct.mz_zip_archive, ptr %22, i32 0, i32 12
  %24 = load ptr, ptr %23, align 8
  %25 = icmp ne ptr %24, null
  br i1 %25, label %26, label %31

26:                                               ; preds = %21
  %27 = load ptr, ptr %5, align 8
  %28 = getelementptr inbounds nuw %struct.mz_zip_archive, ptr %27, i32 0, i32 3
  %29 = load i32, ptr %28, align 4
  %30 = icmp ne i32 %29, 0
  br i1 %30, label %31, label %34

31:                                               ; preds = %26, %21, %16, %3
  %32 = load ptr, ptr %5, align 8
  %33 = call i32 @mz_zip_set_error(ptr noundef %32, i32 noundef 24)
  store i32 %33, ptr %4, align 4
  store i32 1, ptr %9, align 4
  br label %144

34:                                               ; preds = %26
  %35 = load i32, ptr %7, align 4
  %36 = and i32 %35, 32768
  %37 = icmp ne i32 %36, 0
  br i1 %37, label %38, label %47

38:                                               ; preds = %34
  %39 = load ptr, ptr %5, align 8
  %40 = getelementptr inbounds nuw %struct.mz_zip_archive, ptr %39, i32 0, i32 11
  %41 = load ptr, ptr %40, align 8
  %42 = icmp ne ptr %41, null
  br i1 %42, label %46, label %43

43:                                               ; preds = %38
  %44 = load ptr, ptr %5, align 8
  %45 = call i32 @mz_zip_set_error(ptr noundef %44, i32 noundef 24)
  store i32 %45, ptr %4, align 4
  store i32 1, ptr %9, align 4
  br label %144

46:                                               ; preds = %38
  br label %47

47:                                               ; preds = %46, %34
  %48 = load ptr, ptr %5, align 8
  %49 = getelementptr inbounds nuw %struct.mz_zip_archive, ptr %48, i32 0, i32 6
  %50 = load i64, ptr %49, align 8
  %51 = icmp ne i64 %50, 0
  br i1 %51, label %52, label %66

52:                                               ; preds = %47
  %53 = load ptr, ptr %5, align 8
  %54 = getelementptr inbounds nuw %struct.mz_zip_archive, ptr %53, i32 0, i32 6
  %55 = load i64, ptr %54, align 8
  %56 = load ptr, ptr %5, align 8
  %57 = getelementptr inbounds nuw %struct.mz_zip_archive, ptr %56, i32 0, i32 6
  %58 = load i64, ptr %57, align 8
  %59 = sub i64 %58, 1
  %60 = and i64 %55, %59
  %61 = icmp ne i64 %60, 0
  br i1 %61, label %62, label %65

62:                                               ; preds = %52
  %63 = load ptr, ptr %5, align 8
  %64 = call i32 @mz_zip_set_error(ptr noundef %63, i32 noundef 24)
  store i32 %64, ptr %4, align 4
  store i32 1, ptr %9, align 4
  br label %144

65:                                               ; preds = %52
  br label %66

66:                                               ; preds = %65, %47
  %67 = load ptr, ptr %5, align 8
  %68 = getelementptr inbounds nuw %struct.mz_zip_archive, ptr %67, i32 0, i32 7
  %69 = load ptr, ptr %68, align 8
  %70 = icmp ne ptr %69, null
  br i1 %70, label %74, label %71

71:                                               ; preds = %66
  %72 = load ptr, ptr %5, align 8
  %73 = getelementptr inbounds nuw %struct.mz_zip_archive, ptr %72, i32 0, i32 7
  store ptr @miniz_def_alloc_func, ptr %73, align 8
  br label %74

74:                                               ; preds = %71, %66
  %75 = load ptr, ptr %5, align 8
  %76 = getelementptr inbounds nuw %struct.mz_zip_archive, ptr %75, i32 0, i32 8
  %77 = load ptr, ptr %76, align 8
  %78 = icmp ne ptr %77, null
  br i1 %78, label %82, label %79

79:                                               ; preds = %74
  %80 = load ptr, ptr %5, align 8
  %81 = getelementptr inbounds nuw %struct.mz_zip_archive, ptr %80, i32 0, i32 8
  store ptr @miniz_def_free_func, ptr %81, align 8
  br label %82

82:                                               ; preds = %79, %74
  %83 = load ptr, ptr %5, align 8
  %84 = getelementptr inbounds nuw %struct.mz_zip_archive, ptr %83, i32 0, i32 9
  %85 = load ptr, ptr %84, align 8
  %86 = icmp ne ptr %85, null
  br i1 %86, label %90, label %87

87:                                               ; preds = %82
  %88 = load ptr, ptr %5, align 8
  %89 = getelementptr inbounds nuw %struct.mz_zip_archive, ptr %88, i32 0, i32 9
  store ptr @miniz_def_realloc_func, ptr %89, align 8
  br label %90

90:                                               ; preds = %87, %82
  %91 = load i64, ptr %6, align 8
  %92 = load ptr, ptr %5, align 8
  %93 = getelementptr inbounds nuw %struct.mz_zip_archive, ptr %92, i32 0, i32 0
  store i64 %91, ptr %93, align 8
  %94 = load ptr, ptr %5, align 8
  %95 = getelementptr inbounds nuw %struct.mz_zip_archive, ptr %94, i32 0, i32 1
  store i64 0, ptr %95, align 8
  %96 = load ptr, ptr %5, align 8
  %97 = getelementptr inbounds nuw %struct.mz_zip_archive, ptr %96, i32 0, i32 2
  store i32 0, ptr %97, align 8
  %98 = load ptr, ptr %5, align 8
  %99 = getelementptr inbounds nuw %struct.mz_zip_archive, ptr %98, i32 0, i32 7
  %100 = load ptr, ptr %99, align 8
  %101 = load ptr, ptr %5, align 8
  %102 = getelementptr inbounds nuw %struct.mz_zip_archive, ptr %101, i32 0, i32 10
  %103 = load ptr, ptr %102, align 8
  %104 = call ptr %100(ptr noundef %103, i64 noundef 1, i64 noundef 152)
  %105 = load ptr, ptr %5, align 8
  %106 = getelementptr inbounds nuw %struct.mz_zip_archive, ptr %105, i32 0, i32 15
  store ptr %104, ptr %106, align 8
  %107 = icmp eq ptr null, %104
  br i1 %107, label %108, label %111

108:                                              ; preds = %90
  %109 = load ptr, ptr %5, align 8
  %110 = call i32 @mz_zip_set_error(ptr noundef %109, i32 noundef 16)
  store i32 %110, ptr %4, align 4
  store i32 1, ptr %9, align 4
  br label %144

111:                                              ; preds = %90
  %112 = load ptr, ptr %5, align 8
  %113 = getelementptr inbounds nuw %struct.mz_zip_archive, ptr %112, i32 0, i32 15
  %114 = load ptr, ptr %113, align 8
  call void @llvm.memset.p0.i64(ptr align 8 %114, i8 0, i64 152, i1 false)
  %115 = load ptr, ptr %5, align 8
  %116 = getelementptr inbounds nuw %struct.mz_zip_archive, ptr %115, i32 0, i32 15
  %117 = load ptr, ptr %116, align 8
  %118 = getelementptr inbounds nuw %struct.mz_zip_internal_state_tag, ptr %117, i32 0, i32 0
  %119 = getelementptr inbounds nuw %struct.mz_zip_array, ptr %118, i32 0, i32 3
  store i32 1, ptr %119, align 8
  %120 = load ptr, ptr %5, align 8
  %121 = getelementptr inbounds nuw %struct.mz_zip_archive, ptr %120, i32 0, i32 15
  %122 = load ptr, ptr %121, align 8
  %123 = getelementptr inbounds nuw %struct.mz_zip_internal_state_tag, ptr %122, i32 0, i32 1
  %124 = getelementptr inbounds nuw %struct.mz_zip_array, ptr %123, i32 0, i32 3
  store i32 4, ptr %124, align 8
  %125 = load ptr, ptr %5, align 8
  %126 = getelementptr inbounds nuw %struct.mz_zip_archive, ptr %125, i32 0, i32 15
  %127 = load ptr, ptr %126, align 8
  %128 = getelementptr inbounds nuw %struct.mz_zip_internal_state_tag, ptr %127, i32 0, i32 2
  %129 = getelementptr inbounds nuw %struct.mz_zip_array, ptr %128, i32 0, i32 3
  store i32 4, ptr %129, align 8
  %130 = load i32, ptr %8, align 4
  %131 = load ptr, ptr %5, align 8
  %132 = getelementptr inbounds nuw %struct.mz_zip_archive, ptr %131, i32 0, i32 15
  %133 = load ptr, ptr %132, align 8
  %134 = getelementptr inbounds nuw %struct.mz_zip_internal_state_tag, ptr %133, i32 0, i32 4
  store i32 %130, ptr %134, align 4
  %135 = load i32, ptr %8, align 4
  %136 = load ptr, ptr %5, align 8
  %137 = getelementptr inbounds nuw %struct.mz_zip_archive, ptr %136, i32 0, i32 15
  %138 = load ptr, ptr %137, align 8
  %139 = getelementptr inbounds nuw %struct.mz_zip_internal_state_tag, ptr %138, i32 0, i32 5
  store i32 %135, ptr %139, align 8
  %140 = load ptr, ptr %5, align 8
  %141 = getelementptr inbounds nuw %struct.mz_zip_archive, ptr %140, i32 0, i32 4
  store i32 1, ptr %141, align 8
  %142 = load ptr, ptr %5, align 8
  %143 = getelementptr inbounds nuw %struct.mz_zip_archive, ptr %142, i32 0, i32 3
  store i32 2, ptr %143, align 4
  store i32 1, ptr %4, align 4
  store i32 1, ptr %9, align 4
  br label %144

144:                                              ; preds = %111, %108, %62, %43, %31
  call void @llvm.lifetime.end.p0(i64 4, ptr %8) #13
  %145 = load i32, ptr %4, align 4
  ret i32 %145
}

; Function Attrs: nounwind uwtable
define i32 @mz_zip_writer_init(ptr noundef %0, i64 noundef %1) #0 {
  %3 = alloca ptr, align 8
  %4 = alloca i64, align 8
  store ptr %0, ptr %3, align 8
  store i64 %1, ptr %4, align 8
  %5 = load ptr, ptr %3, align 8
  %6 = load i64, ptr %4, align 8
  %7 = call i32 @mz_zip_writer_init_v2(ptr noundef %5, i64 noundef %6, i32 noundef 0)
  ret i32 %7
}